target datalayout = "e-m:e-p270:32:32-p271:32:32-p272:64:64-i64:64-i128:128-f80:128-n8:16:32:64-S128"
target triple = "x86_64-pc-linux-gnu"

%struct.H5D_obj_create_t = type { i64, ptr, i64, i64 }
%struct.H5G_loc_t = type { ptr, ptr }

@.str.2 = private unnamed_addr constant [99 x i8] c"generated/home/dtcxzyw/WorkSpace/Projects/compilers/llvm-opt-benchmark/bench/hdf5/hdf5/src/H5Doh.c\00", align 1
@H5E_DATASET_g = external global i64, align 8
@H5E_CANTINIT_g = external global i64, align 8
@H5E_CLOSEERROR_g = external global i64, align 8
@.str.8 = private unnamed_addr constant [26 x i8] c"unable to release dataset\00", align 1
@__func__.H5O__dset_create = private unnamed_addr constant [17 x i8] c"H5O__dset_create\00", align 1
@.str.9 = private unnamed_addr constant [25 x i8] c"unable to create dataset\00", align 1
@H5E_ARGS_g = external global i64, align 8
@H5E_BADVALUE_g = external global i64, align 8
@.str.10 = private unnamed_addr constant [41 x i8] c"unable to get object location of dataset\00", align 1
@.str.11 = private unnamed_addr constant [30 x i8] c"unable to get path of dataset\00", align 1

; Function Attrs: nounwind uwtable
define internal ptr @H5O__dset_create(ptr noundef %0, ptr noundef %1, ptr noundef %2) #0 {
  %4 = alloca ptr, align 8
  %5 = alloca ptr, align 8
  %6 = alloca ptr, align 8
  %7 = alloca ptr, align 8
  %8 = alloca ptr, align 8
  %9 = alloca ptr, align 8
  %10 = alloca i8, align 1
  store ptr %0, ptr %4, align 8
  store ptr %1, ptr %5, align 8
  store ptr %2, ptr %6, align 8
  %11 = load ptr, ptr %5, align 8
  store ptr %11, ptr %7, align 8
  store ptr null, ptr %8, align 8
  store ptr null, ptr %9, align 8
  store i8 0, ptr %10, align 1
  %12 = load ptr, ptr %4, align 8
  %13 = load ptr, ptr %7, align 8
  %14 = getelementptr inbounds %struct.H5D_obj_create_t, ptr %13, i32 0, i32 0
  %15 = load i64, ptr %14, align 8
  %16 = load ptr, ptr %7, align 8
  %17 = getelementptr inbounds %struct.H5D_obj_create_t, ptr %16, i32 0, i32 1
  %18 = load ptr, ptr %17, align 8
  %19 = load ptr, ptr %7, align 8
  %20 = getelementptr inbounds %struct.H5D_obj_create_t, ptr %19, i32 0, i32 2
  %21 = load i64, ptr %20, align 8
  %22 = load ptr, ptr %7, align 8
  %23 = getelementptr inbounds %struct.H5D_obj_create_t, ptr %22, i32 0, i32 3
  %24 = load i64, ptr %23, align 8
  %25 = call ptr @H5D__create(ptr noundef %12, i64 noundef %15, ptr noundef %18, i64 noundef %21, i64 noundef %24)
  store ptr %25, ptr %8, align 8
  %26 = icmp eq ptr null, %25
  br i1 %26, label %27, label %42

27:                                               ; preds = %3
  br label %28

28:                                               ; preds = %27
  br label %29

29:                                               ; preds = %28
  br label %30

30:                                               ; preds = %29
  %31 = load i64, ptr @H5E_DATASET_g, align 8
  %32 = load i64, ptr @H5E_CANTINIT_g, align 8
  %33 = call i32 (ptr, ptr, i32, i64, i64, ptr, ...) @H5E_printf_stack(ptr noundef @.str.2, ptr noundef @__func__.H5O__dset_create, i32 noundef 273, i64 noundef %31, i64 noundef %32, ptr noundef @.str.9)
  br label %34

34:                                               ; preds = %30
  store i8 1, ptr %10, align 1
  %35 = load i8, ptr %10, align 1
  %36 = trunc i8 %35 to i1
  %37 = zext i1 %36 to i8
  store i8 %37, ptr %10, align 1
  br label %38

38:                                               ; preds = %34
  br label %39

39:                                               ; preds = %38
  store ptr null, ptr %9, align 8
  br label %86

40:                                               ; No predecessors!
  br label %41

41:                                               ; preds = %40
  br label %42

42:                                               ; preds = %41, %3
  %43 = load ptr, ptr %8, align 8
  %44 = call ptr @H5D_oloc(ptr noundef %43)
  %45 = load ptr, ptr %6, align 8
  %46 = getelementptr inbounds %struct.H5G_loc_t, ptr %45, i32 0, i32 0
  store ptr %44, ptr %46, align 8
  %47 = icmp eq ptr null, %44
  br i1 %47, label %48, label %63

48:                                               ; preds = %42
  br label %49

49:                                               ; preds = %48
  br label %50

50:                                               ; preds = %49
  br label %51

51:                                               ; preds = %50
  %52 = load i64, ptr @H5E_ARGS_g, align 8
  %53 = load i64, ptr @H5E_BADVALUE_g, align 8
  %54 = call i32 (ptr, ptr, i32, i64, i64, ptr, ...) @H5E_printf_stack(ptr noundef @.str.2, ptr noundef @__func__.H5O__dset_create, i32 noundef 277, i64 noundef %52, i64 noundef %53, ptr noundef @.str.10)
  br label %55

55:                                               ; preds = %51
  store i8 1, ptr %10, align 1
  %56 = load i8, ptr %10, align 1
  %57 = trunc i8 %56 to i1
  %58 = zext i1 %57 to i8
  store i8 %58, ptr %10, align 1
  br label %59

59:                                               ; preds = %55
  br label %60

60:                                               ; preds = %59
  store ptr null, ptr %9, align 8
  br label %86

61:                                               ; No predecessors!
  br label %62

62:                                               ; preds = %61
  br label %63

63:                                               ; preds = %62, %42
  %64 = load ptr, ptr %8, align 8
  %65 = call ptr @H5D_nameof(ptr noundef %64)
  %66 = load ptr, ptr %6, align 8
  %67 = getelementptr inbounds %struct.H5G_loc_t, ptr %66, i32 0, i32 1
  store ptr %65, ptr %67, align 8
  %68 = icmp eq ptr null, %65
  br i1 %68, label %69, label %84

69:                                               ; preds = %63
  br label %70

70:                                               ; preds = %69
  br label %71

71:                                               ; preds = %70
  br label %72

72:                                               ; preds = %71
  %73 = load i64, ptr @H5E_ARGS_g, align 8
  %74 = load i64, ptr @H5E_BADVALUE_g, align 8
  %75 = call i32 (ptr, ptr, i32, i64, i64, ptr, ...) @H5E_printf_stack(ptr noundef @.str.2, ptr noundef @__func__.H5O__dset_create, i32 noundef 279, i64 noundef %73, i64 noundef %74, ptr noundef @.str.11)
  br label %76

76:                                               ; preds = %72
  store i8 1, ptr %10, align 1
  %77 = load i8, ptr %10, align 1
  %78 = trunc i8 %77 to i1
  %79 = zext i1 %78 to i8
  store i8 %79, ptr %10, align 1
  br label %80

80:                                               ; preds = %76
  br label %81

81:                                               ; preds = %80
  store ptr null, ptr %9, align 8
  br label %86

82:                                               ; No predecessors!
  br label %83

83:                                               ; preds = %82
  br label %84

84:                                               ; preds = %83, %63
  %85 = load ptr, ptr %8, align 8
  store ptr %85, ptr %9, align 8
  br label %86

86:                                               ; preds = %84, %81, %60, %39
  %87 = load ptr, ptr %9, align 8
  %88 = icmp eq ptr %87, null
  br i1 %88, label %89, label %110

89:                                               ; preds = %86
  %90 = load ptr, ptr %8, align 8
  %91 = icmp ne ptr %90, null
  br i1 %91, label %92, label %109

92:                                               ; preds = %89
  %93 = load ptr, ptr %8, align 8
  %94 = call i32 @H5D_close(ptr noundef %93)
  %95 = icmp slt i32 %94, 0
  br i1 %95, label %96, label %109

96:                                               ; preds = %92
  br label %97

97:                                               ; preds = %96
  br label %98

98:                                               ; preds = %97
  br label %99

99:                                               ; preds = %98
  %100 = load i64, ptr @H5E_DATASET_g, align 8
  %101 = load i64, ptr @H5E_CLOSEERROR_g, align 8
  %102 = call i32 (ptr, ptr, i32, i64, i64, ptr, ...) @H5E_printf_stack(ptr noundef @.str.2, ptr noundef @__func__.H5O__dset_create, i32 noundef 287, i64 noundef %100, i64 noundef %101, ptr noundef @.str.8)
  br label %103

103:                                              ; preds = %99
  store i8 1, ptr %10, align 1
  %104 = load i8, ptr %10, align 1
  %105 = trunc i8 %104 to i1
  %106 = zext i1 %105 to i8
  store i8 %106, ptr %10, align 1
  br label %107

107:                                              ; preds = %103
  store ptr null, ptr %9, align 8
  br label %108

108:                                              ; preds = %107
  br label %109

109:                                              ; preds = %108, %92, %89
  br label %110

110:                                              ; preds = %109, %86
  %111 = load ptr, ptr %9, align 8
  ret ptr %111
}