; Function Attrs: nounwind uwtable
define internal ptr @H5O__dset_create(ptr noundef %0, ptr nocapture noundef readonly %1, ptr nocapture noundef writeonly %2) #0 {
  %4 = load i64, ptr %1, align 8
  %5 = getelementptr inbounds i8, ptr %1, i64 8
  %6 = load ptr, ptr %5, align 8
  %7 = getelementptr inbounds i8, ptr %1, i64 16
  %8 = load i64, ptr %7, align 8
  %9 = getelementptr inbounds i8, ptr %1, i64 24
  %10 = load i64, ptr %9, align 8
  %11 = tail call ptr @H5D__create(ptr noundef %0, i64 noundef %4, ptr noundef %6, i64 noundef %8, i64 noundef %10) #3
  %12 = icmp eq ptr %11, null
  br i1 %12, label %13, label %17

13:                                               ; preds = %3
  %14 = load i64, ptr @H5E_DATASET_g, align 8
  %15 = load i64, ptr @H5E_CANTINIT_g, align 8
  %16 = tail call i32 (ptr, ptr, i32, i64, i64, ptr, ...) @H5E_printf_stack(ptr noundef nonnull @.str.2, ptr noundef nonnull @__func__.H5O__dset_create, i32 noundef 273, i64 noundef %14, i64 noundef %15, ptr noundef nonnull @.str.9) #3
  br label %.thread

17:                                               ; preds = %3
  %18 = tail call ptr @H5D_oloc(ptr noundef nonnull %11) #3
  store ptr %18, ptr %2, align 8
  %19 = icmp eq ptr %18, null
  br i1 %19, label %20, label %24

20:                                               ; preds = %17
  %21 = load i64, ptr @H5E_ARGS_g, align 8
  %22 = load i64, ptr @H5E_BADVALUE_g, align 8
  %23 = tail call i32 (ptr, ptr, i32, i64, i64, ptr, ...) @H5E_printf_stack(ptr noundef nonnull @.str.2, ptr noundef nonnull @__func__.H5O__dset_create, i32 noundef 277, i64 noundef %21, i64 noundef %22, ptr noundef nonnull @.str.10) #3
  br label %32

24:                                               ; preds = %17
  %25 = tail call ptr @H5D_nameof(ptr noundef nonnull %11) #3
  %26 = getelementptr inbounds i8, ptr %2, i64 8
  store ptr %25, ptr %26, align 8
  %27 = icmp eq ptr %25, null
  br i1 %27, label %28, label %.thread

28:                                               ; preds = %24
  %29 = load i64, ptr @H5E_ARGS_g, align 8
  %30 = load i64, ptr @H5E_BADVALUE_g, align 8
  %31 = tail call i32 (ptr, ptr, i32, i64, i64, ptr, ...) @H5E_printf_stack(ptr noundef nonnull @.str.2, ptr noundef nonnull @__func__.H5O__dset_create, i32 noundef 279, i64 noundef %29, i64 noundef %30, ptr noundef nonnull @.str.11) #3
  br label %32

32:                                               ; preds = %20, %28
  %33 = tail call i32 @H5D_close(ptr noundef nonnull %11) #3
  %34 = icmp slt i32 %33, 0
  br i1 %34, label %35, label %.thread

35:                                               ; preds = %32
  %36 = load i64, ptr @H5E_DATASET_g, align 8
  %37 = load i64, ptr @H5E_CLOSEERROR_g, align 8
  %38 = tail call i32 (ptr, ptr, i32, i64, i64, ptr, ...) @H5E_printf_stack(ptr noundef nonnull @.str.2, ptr noundef nonnull @__func__.H5O__dset_create, i32 noundef 287, i64 noundef %36, i64 noundef %37, ptr noundef nonnull @.str.8) #3
  br label %.thread

.thread:                                          ; preds = %13, %24, %32, %35
  %.1 = phi ptr [ null, %35 ], [ null, %32 ], [ %11, %24 ], [ null, %13 ]
  ret ptr %.1
}